target datalayout = "e-m:e-p270:32:32-p271:32:32-p272:64:64-i64:64-i128:128-f80:128-n8:16:32:64-S128"
target triple = "x86_64-pc-linux-gnu"

%"struct.std::_Rb_tree_header" = type { %"struct.std::_Rb_tree_node_base", i64 }
%"struct.std::_Rb_tree_node_base" = type { i32, ptr, ptr, ptr }
%"class.vcg::Matrix44.180" = type { %"struct.std::array.181" }
%"struct.std::array.181" = type { [16 x double] }
%"class.vcg::Point3.17" = type { [3 x float] }
%class.EditAlignPlugin = type { %class.QObject, %class.EditTool, %class.QFont, i32, ptr, %"class.vcg::Trackball", ptr, ptr, %"class.vcg::MeshTree", %"class.vcg::AlignPair::Param", %"class.vcg::MeshTree<MeshModel, float>::Param", ptr }
%class.QObject = type { ptr, %class.QScopedPointer }
%class.QScopedPointer = type { ptr }
%class.EditTool = type { %class.MeshLabPluginLogger }
%class.MeshLabPluginLogger = type { ptr, ptr }
%class.QFont = type <{ %class.QExplicitlySharedDataPointer, i32, [4 x i8] }>
%class.QExplicitlySharedDataPointer = type { ptr }
%"class.vcg::Trackball" = type <{ %"class.vcg::Transform", %"class.vcg::View", i32, ptr, ptr, ptr, %"class.std::map.18", %"class.vcg::Similarityf", %"class.vcg::Similarityf", %"class.vcg::Similarityf", %"class.vcg::Point3.17", [4 x i8], %"class.std::vector.26", i8, [3 x i8], i32, i32, %"class.vcg::Quaternion", i8, i8, [2 x i8], %"class.std::__cxx11::list", i32, i8, [3 x i8] }>
%"class.vcg::Transform" = type { %"class.vcg::Similarityf", %"class.vcg::Point3.17", float }
%"class.vcg::View" = type <{ %"class.vcg::Matrix44", %"class.vcg::Matrix44", %"class.vcg::Matrix44", %"class.vcg::Matrix44", [4 x i32], i8, [3 x i8] }>
%"class.vcg::Matrix44" = type { %"struct.std::array" }
%"struct.std::array" = type { [16 x float] }
%"class.std::map.18" = type { %"class.std::_Rb_tree.19" }
%"class.std::_Rb_tree.19" = type { %"struct.std::_Rb_tree<int, std::pair<const int, vcg::TrackMode *>, std::_Select1st<std::pair<const int, vcg::TrackMode *>>, std::less<int>>::_Rb_tree_impl" }
%"struct.std::_Rb_tree<int, std::pair<const int, vcg::TrackMode *>, std::_Select1st<std::pair<const int, vcg::TrackMode *>>, std::less<int>>::_Rb_tree_impl" = type { %"struct.std::_Rb_tree_key_compare.23", %"struct.std::_Rb_tree_header" }
%"struct.std::_Rb_tree_key_compare.23" = type { %"struct.std::less.24" }
%"struct.std::less.24" = type { i8 }
%"class.vcg::Similarityf" = type { %"class.vcg::Similarity" }
%"class.vcg::Similarity" = type { %"class.vcg::Quaternion", %"class.vcg::Point3.17", float }
%"class.std::vector.26" = type { %"struct.std::_Vector_base.27" }
%"struct.std::_Vector_base.27" = type { %"struct.std::_Vector_base<vcg::Point3<float>, std::allocator<vcg::Point3<float>>>::_Vector_impl" }
%"struct.std::_Vector_base<vcg::Point3<float>, std::allocator<vcg::Point3<float>>>::_Vector_impl" = type { %"struct.std::_Vector_base<vcg::Point3<float>, std::allocator<vcg::Point3<float>>>::_Vector_impl_data" }
%"struct.std::_Vector_base<vcg::Point3<float>, std::allocator<vcg::Point3<float>>>::_Vector_impl_data" = type { ptr, ptr, ptr }
%"class.vcg::Quaternion" = type { %"class.vcg::Point4.16" }
%"class.vcg::Point4.16" = type { [4 x float] }
%"class.std::__cxx11::list" = type { %"class.std::__cxx11::_List_base" }
%"class.std::__cxx11::_List_base" = type { %"struct.std::__cxx11::_List_base<vcg::Transform, std::allocator<vcg::Transform>>::_List_impl" }
%"struct.std::__cxx11::_List_base<vcg::Transform, std::allocator<vcg::Transform>>::_List_impl" = type { %"struct.std::__detail::_List_node_header" }
%"struct.std::__detail::_List_node_header" = type { %"struct.std::__detail::_List_node_base", i64 }
%"struct.std::__detail::_List_node_base" = type { ptr, ptr }
%"class.vcg::MeshTree" = type { %"class.std::map.34", %"class.std::vector.39", %"class.vcg::OccupancyGrid", ptr }
%"class.std::map.34" = type { %"class.std::_Rb_tree.35" }
%"class.std::_Rb_tree.35" = type { %"struct.std::_Rb_tree<int, std::pair<const int, vcg::MeshTree<MeshModel, float>::MeshNode *>, std::_Select1st<std::pair<const int, vcg::MeshTree<MeshModel, float>::MeshNode *>>, std::less<int>>::_Rb_tree_impl" }
%"struct.std::_Rb_tree<int, std::pair<const int, vcg::MeshTree<MeshModel, float>::MeshNode *>, std::_Select1st<std::pair<const int, vcg::MeshTree<MeshModel, float>::MeshNode *>>, std::less<int>>::_Rb_tree_impl" = type { %"struct.std::_Rb_tree_key_compare.23", %"struct.std::_Rb_tree_header" }
%"class.std::vector.39" = type { %"struct.std::_Vector_base.40" }
%"struct.std::_Vector_base.40" = type { %"struct.std::_Vector_base<vcg::AlignPair::Result, std::allocator<vcg::AlignPair::Result>>::_Vector_impl" }
%"struct.std::_Vector_base<vcg::AlignPair::Result, std::allocator<vcg::AlignPair::Result>>::_Vector_impl" = type { %"struct.std::_Vector_base<vcg::AlignPair::Result, std::allocator<vcg::AlignPair::Result>>::_Vector_impl_data" }
%"struct.std::_Vector_base<vcg::AlignPair::Result, std::allocator<vcg::AlignPair::Result>>::_Vector_impl_data" = type { ptr, ptr, ptr }
%"class.vcg::OccupancyGrid" = type { %"class.vcg::GridStaticObj", i32, i32, i32, %"class.std::vector.46", %"class.std::map.51" }
%"class.vcg::GridStaticObj" = type { %"class.vcg::BasicGrid", ptr }
%"class.vcg::BasicGrid" = type { %"class.vcg::Box3.44", %"class.vcg::Point3.17", %"class.vcg::Point3.45", %"class.vcg::Point3.17" }
%"class.vcg::Box3.44" = type { %"class.vcg::Point3.17", %"class.vcg::Point3.17" }
%"class.vcg::Point3.45" = type { [3 x i32] }
%"class.std::vector.46" = type { %"struct.std::_Vector_base.47" }
%"struct.std::_Vector_base.47" = type { %"struct.std::_Vector_base<vcg::OccupancyGrid<CMeshO, float>::OGArcInfo, std::allocator<vcg::OccupancyGrid<CMeshO, float>::OGArcInfo>>::_Vector_impl" }
%"struct.std::_Vector_base<vcg::OccupancyGrid<CMeshO, float>::OGArcInfo, std::allocator<vcg::OccupancyGrid<CMeshO, float>::OGArcInfo>>::_Vector_impl" = type { %"struct.std::_Vector_base<vcg::OccupancyGrid<CMeshO, float>::OGArcInfo, std::allocator<vcg::OccupancyGrid<CMeshO, float>::OGArcInfo>>::_Vector_impl_data" }
%"struct.std::_Vector_base<vcg::OccupancyGrid<CMeshO, float>::OGArcInfo, std::allocator<vcg::OccupancyGrid<CMeshO, float>::OGArcInfo>>::_Vector_impl_data" = type { ptr, ptr, ptr }
%"class.std::map.51" = type { %"class.std::_Rb_tree.52" }
%"class.std::_Rb_tree.52" = type { %"struct.std::_Rb_tree<int, std::pair<const int, vcg::OccupancyGrid<CMeshO, float>::OGMeshInfo>, std::_Select1st<std::pair<const int, vcg::OccupancyGrid<CMeshO, float>::OGMeshInfo>>, std::less<int>>::_Rb_tree_impl" }
%"struct.std::_Rb_tree<int, std::pair<const int, vcg::OccupancyGrid<CMeshO, float>::OGMeshInfo>, std::_Select1st<std::pair<const int, vcg::OccupancyGrid<CMeshO, float>::OGMeshInfo>>, std::less<int>>::_Rb_tree_impl" = type { %"struct.std::_Rb_tree_key_compare.23", %"struct.std::_Rb_tree_header" }
%"class.vcg::AlignPair::Param" = type { i32, i32, i32, double, double, i32, double, i32, double, double, double, i32, i8, double, double, i32, i32 }
%"class.vcg::MeshTree<MeshModel, float>::Param" = type { i32, float, float }
%"class.vcg::AlignPair::Result" = type <{ i32, i32, %"class.vcg::Matrix44.180", %"class.std::vector.182", %"class.std::vector.182", %"class.std::vector.182", %"class.std::vector.182", %"class.vcg::Histogram", %"class.vcg::AlignPair::Stat", %"class.vcg::AlignPair::Param", i32, [4 x i8], double, float, [4 x i8] }>
%"class.std::vector.182" = type { %"struct.std::_Vector_base.183" }
%"struct.std::_Vector_base.183" = type { %"struct.std::_Vector_base<vcg::Point3<double>, std::allocator<vcg::Point3<double>>>::_Vector_impl" }
%"struct.std::_Vector_base<vcg::Point3<double>, std::allocator<vcg::Point3<double>>>::_Vector_impl" = type { %"struct.std::_Vector_base<vcg::Point3<double>, std::allocator<vcg::Point3<double>>>::_Vector_impl_data" }
%"struct.std::_Vector_base<vcg::Point3<double>, std::allocator<vcg::Point3<double>>>::_Vector_impl_data" = type { ptr, ptr, ptr }
%"class.vcg::Histogram" = type { %"class.std::vector.98", %"class.std::vector.98", float, float, float, float, i32, float, float, float }
%"class.std::vector.98" = type { %"struct.std::_Vector_base.99" }
%"struct.std::_Vector_base.99" = type { %"struct.std::_Vector_base<float, std::allocator<float>>::_Vector_impl" }
%"struct.std::_Vector_base<float, std::allocator<float>>::_Vector_impl" = type { %"struct.std::_Vector_base<float, std::allocator<float>>::_Vector_impl_data" }
%"struct.std::_Vector_base<float, std::allocator<float>>::_Vector_impl_data" = type { ptr, ptr, ptr }
%"class.vcg::AlignPair::Stat" = type { %"class.std::vector.187", i32, i32, i32, i32 }
%"class.std::vector.187" = type { %"struct.std::_Vector_base.188" }
%"struct.std::_Vector_base.188" = type { %"struct.std::_Vector_base<vcg::AlignPair::Stat::IterInfo, std::allocator<vcg::AlignPair::Stat::IterInfo>>::_Vector_impl" }
%"struct.std::_Vector_base<vcg::AlignPair::Stat::IterInfo, std::allocator<vcg::AlignPair::Stat::IterInfo>>::_Vector_impl" = type { %"struct.std::_Vector_base<vcg::AlignPair::Stat::IterInfo, std::allocator<vcg::AlignPair::Stat::IterInfo>>::_Vector_impl_data" }
%"struct.std::_Vector_base<vcg::AlignPair::Stat::IterInfo, std::allocator<vcg::AlignPair::Stat::IterInfo>>::_Vector_impl_data" = type { ptr, ptr, ptr }
%"class.__gnu_cxx::__normal_iterator.2070" = type { ptr }

; Function Attrs: mustprogress nounwind uwtable
define linkonce_odr noundef nonnull align 8 dereferenceable(8) ptr @_ZNK9__gnu_cxx17__normal_iteratorIPN3vcg9AlignPair6ResultESt6vectorIS3_SaIS3_EEE4baseEv(ptr noundef nonnull align 8 dereferenceable(8) %0) #4 comdat align 2 {
  %2 = alloca ptr, align 8
  store ptr %0, ptr %2, align 8
  %3 = load ptr, ptr %2, align 8
  %4 = getelementptr inbounds %"class.__gnu_cxx::__normal_iterator.2070", ptr %3, i32 0, i32 0
  ret ptr %4
}

; Function Attrs: mustprogress nounwind uwtable
define linkonce_odr void @_ZN9__gnu_cxx17__normal_iteratorIPN3vcg9AlignPair6ResultESt6vectorIS3_SaIS3_EEEC2ERKS4_(ptr noundef nonnull align 8 dereferenceable(8) %0, ptr noundef nonnull align 8 dereferenceable(8) %1) unnamed_addr #4 comdat align 2 {
  %3 = alloca ptr, align 8
  %4 = alloca ptr, align 8
  store ptr %0, ptr %3, align 8
  store ptr %1, ptr %4, align 8
  %5 = load ptr, ptr %3, align 8
  %6 = getelementptr inbounds %"class.__gnu_cxx::__normal_iterator.2070", ptr %5, i32 0, i32 0
  %7 = load ptr, ptr %4, align 8
  %8 = load ptr, ptr %7, align 8
  store ptr %8, ptr %6, align 8
  ret void
}

; Function Attrs: mustprogress nounwind uwtable
define linkonce_odr noundef nonnull align 8 dereferenceable(8) ptr @_ZN9__gnu_cxx17__normal_iteratorIPN3vcg9AlignPair6ResultESt6vectorIS3_SaIS3_EEEppEv(ptr noundef nonnull align 8 dereferenceable(8) %0) #4 comdat align 2 {
  %2 = alloca ptr, align 8
  store ptr %0, ptr %2, align 8
  %3 = load ptr, ptr %2, align 8
  %4 = getelementptr inbounds %"class.__gnu_cxx::__normal_iterator.2070", ptr %3, i32 0, i32 0
  %5 = load ptr, ptr %4, align 8
  %6 = getelementptr inbounds %"class.vcg::AlignPair::Result", ptr %5, i32 1
  store ptr %6, ptr %4, align 8
  ret ptr %3
}

; Function Attrs: mustprogress nounwind uwtable
define linkonce_odr noundef nonnull align 8 dereferenceable(484) ptr @_ZNK9__gnu_cxx17__normal_iteratorIPN3vcg9AlignPair6ResultESt6vectorIS3_SaIS3_EEEdeEv(ptr noundef nonnull align 8 dereferenceable(8) %0) #4 comdat align 2 {
  %2 = alloca ptr, align 8
  store ptr %0, ptr %2, align 8
  %3 = load ptr, ptr %2, align 8
  %4 = getelementptr inbounds %"class.__gnu_cxx::__normal_iterator.2070", ptr %3, i32 0, i32 0
  %5 = load ptr, ptr %4, align 8
  ret ptr %5
}

; Function Attrs: mustprogress nounwind uwtable
define linkonce_odr noundef ptr @_ZNK9__gnu_cxx17__normal_iteratorIPN3vcg9AlignPair6ResultESt6vectorIS3_SaIS3_EEEptEv(ptr noundef nonnull align 8 dereferenceable(8) %0) #4 comdat align 2 {
  %2 = alloca ptr, align 8
  store ptr %0, ptr %2, align 8
  %3 = load ptr, ptr %2, align 8
  %4 = getelementptr inbounds %"class.__gnu_cxx::__normal_iterator.2070", ptr %3, i32 0, i32 0
  %5 = load ptr, ptr %4, align 8
  ret ptr %5
}

; Function Attrs: mustprogress nounwind uwtable
define linkonce_odr noundef zeroext i1 @_ZN9__gnu_cxxneIPN3vcg9AlignPair6ResultESt6vectorIS3_SaIS3_EEEEbRKNS_17__normal_iteratorIT_T0_EESD_(ptr noundef nonnull align 8 dereferenceable(8) %0, ptr noundef nonnull align 8 dereferenceable(8) %1) #4 comdat {
  %3 = alloca ptr, align 8
  %4 = alloca ptr, align 8
  store ptr %0, ptr %3, align 8
  store ptr %1, ptr %4, align 8
  %5 = load ptr, ptr %3, align 8
  %6 = call noundef nonnull align 8 dereferenceable(8) ptr @_ZNK9__gnu_cxx17__normal_iteratorIPN3vcg9AlignPair6ResultESt6vectorIS3_SaIS3_EEE4baseEv(ptr noundef nonnull align 8 dereferenceable(8) %5) #3
  %7 = load ptr, ptr %6, align 8
  %8 = load ptr, ptr %4, align 8
  %9 = call noundef nonnull align 8 dereferenceable(8) ptr @_ZNK9__gnu_cxx17__normal_iteratorIPN3vcg9AlignPair6ResultESt6vectorIS3_SaIS3_EEE4baseEv(ptr noundef nonnull align 8 dereferenceable(8) %8) #3
  %10 = load ptr, ptr %9, align 8
  %11 = icmp ne ptr %7, %10
  ret i1 %11
}

; Function Attrs: mustprogress nounwind uwtable
define linkonce_odr ptr @_ZNSt6vectorIN3vcg9AlignPair6ResultESaIS2_EE3endEv(ptr noundef nonnull align 8 dereferenceable(24) %0) #4 comdat align 2 {
  %2 = alloca %"class.__gnu_cxx::__normal_iterator.2070", align 8
  %3 = alloca ptr, align 8
  store ptr %0, ptr %3, align 8
  %4 = load ptr, ptr %3, align 8
  %5 = getelementptr inbounds %"struct.std::_Vector_base.40", ptr %4, i32 0, i32 0
  %6 = getelementptr inbounds %"struct.std::_Vector_base<vcg::AlignPair::Result, std::allocator<vcg::AlignPair::Result>>::_Vector_impl_data", ptr %5, i32 0, i32 1
  call void @_ZN9__gnu_cxx17__normal_iteratorIPN3vcg9AlignPair6ResultESt6vectorIS3_SaIS3_EEEC2ERKS4_(ptr noundef nonnull align 8 dereferenceable(8) %2, ptr noundef nonnull align 8 dereferenceable(8) %6) #3
  %7 = getelementptr inbounds %"class.__gnu_cxx::__normal_iterator.2070", ptr %2, i32 0, i32 0
  %8 = load ptr, ptr %7, align 8
  ret ptr %8
}

; Function Attrs: mustprogress nounwind uwtable
define linkonce_odr ptr @_ZNSt6vectorIN3vcg9AlignPair6ResultESaIS2_EE5beginEv(ptr noundef nonnull align 8 dereferenceable(24) %0) #4 comdat align 2 {
  %2 = alloca %"class.__gnu_cxx::__normal_iterator.2070", align 8
  %3 = alloca ptr, align 8
  store ptr %0, ptr %3, align 8
  %4 = load ptr, ptr %3, align 8
  %5 = getelementptr inbounds %"struct.std::_Vector_base.40", ptr %4, i32 0, i32 0
  %6 = getelementptr inbounds %"struct.std::_Vector_base<vcg::AlignPair::Result, std::allocator<vcg::AlignPair::Result>>::_Vector_impl_data", ptr %5, i32 0, i32 0
  call void @_ZN9__gnu_cxx17__normal_iteratorIPN3vcg9AlignPair6ResultESt6vectorIS3_SaIS3_EEEC2ERKS4_(ptr noundef nonnull align 8 dereferenceable(8) %2, ptr noundef nonnull align 8 dereferenceable(8) %6) #3
  %7 = getelementptr inbounds %"class.__gnu_cxx::__normal_iterator.2070", ptr %2, i32 0, i32 0
  %8 = load ptr, ptr %7, align 8
  ret ptr %8
}

; Function Attrs: mustprogress uwtable
define void @_ZN15EditAlignPlugin12selectBadArcEv(ptr noundef nonnull align 8 dereferenceable(1056) %0) #5 align 2 {
  %2 = alloca ptr, align 8
  %3 = alloca float, align 4
  %4 = alloca ptr, align 8
  %5 = alloca %"class.__gnu_cxx::__normal_iterator.2070", align 8
  %6 = alloca %"class.__gnu_cxx::__normal_iterator.2070", align 8
  store ptr %0, ptr %2, align 8
  %7 = load ptr, ptr %2, align 8
  store float 0.000000e+00, ptr %3, align 4
  store ptr null, ptr %4, align 8
  %8 = getelementptr inbounds %class.EditAlignPlugin, ptr %7, i32 0, i32 8
  %9 = getelementptr inbounds %"class.vcg::MeshTree", ptr %8, i32 0, i32 1
  %10 = call ptr @_ZNSt6vectorIN3vcg9AlignPair6ResultESaIS2_EE5beginEv(ptr noundef nonnull align 8 dereferenceable(24) %9) #3
  %11 = getelementptr inbounds %"class.__gnu_cxx::__normal_iterator.2070", ptr %5, i32 0, i32 0
  store ptr %10, ptr %11, align 8
  br label %12

12:                                               ; preds = %32, %1
  %13 = getelementptr inbounds %class.EditAlignPlugin, ptr %7, i32 0, i32 8
  %14 = getelementptr inbounds %"class.vcg::MeshTree", ptr %13, i32 0, i32 1
  %15 = call ptr @_ZNSt6vectorIN3vcg9AlignPair6ResultESaIS2_EE3endEv(ptr noundef nonnull align 8 dereferenceable(24) %14) #3
  %16 = getelementptr inbounds %"class.__gnu_cxx::__normal_iterator.2070", ptr %6, i32 0, i32 0
  store ptr %15, ptr %16, align 8
  %17 = call noundef zeroext i1 @_ZN9__gnu_cxxneIPN3vcg9AlignPair6ResultESt6vectorIS3_SaIS3_EEEEbRKNS_17__normal_iteratorIT_T0_EESD_(ptr noundef nonnull align 8 dereferenceable(8) %5, ptr noundef nonnull align 8 dereferenceable(8) %6) #3
  br i1 %17, label %18, label %34

18:                                               ; preds = %12
  %19 = call noundef ptr @_ZNK9__gnu_cxx17__normal_iteratorIPN3vcg9AlignPair6ResultESt6vectorIS3_SaIS3_EEEptEv(ptr noundef nonnull align 8 dereferenceable(8) %5) #3
  %20 = getelementptr inbounds %"class.vcg::AlignPair::Result", ptr %19, i32 0, i32 12
  %21 = load double, ptr %20, align 8
  %22 = load float, ptr %3, align 4
  %23 = fpext float %22 to double
  %24 = fcmp ogt double %21, %23
  br i1 %24, label %25, label %31

25:                                               ; preds = %18
  %26 = call noundef ptr @_ZNK9__gnu_cxx17__normal_iteratorIPN3vcg9AlignPair6ResultESt6vectorIS3_SaIS3_EEEptEv(ptr noundef nonnull align 8 dereferenceable(8) %5) #3
  %27 = getelementptr inbounds %"class.vcg::AlignPair::Result", ptr %26, i32 0, i32 12
  %28 = load double, ptr %27, align 8
  %29 = fptrunc double %28 to float
  store float %29, ptr %3, align 4
  %30 = call noundef nonnull align 8 dereferenceable(484) ptr @_ZNK9__gnu_cxx17__normal_iteratorIPN3vcg9AlignPair6ResultESt6vectorIS3_SaIS3_EEEdeEv(ptr noundef nonnull align 8 dereferenceable(8) %5) #3
  store ptr %30, ptr %4, align 8
  br label %31

31:                                               ; preds = %25, %18
  br label %32

32:                                               ; preds = %31
  %33 = call noundef nonnull align 8 dereferenceable(8) ptr @_ZN9__gnu_cxx17__normal_iteratorIPN3vcg9AlignPair6ResultESt6vectorIS3_SaIS3_EEEppEv(ptr noundef nonnull align 8 dereferenceable(8) %5) #3
  br label %12, !llvm.loop !340

34:                                               ; preds = %12
  %35 = load ptr, ptr %4, align 8
  %36 = icmp ne ptr %35, null
  br i1 %36, label %37, label %41

37:                                               ; preds = %34
  %38 = getelementptr inbounds %class.EditAlignPlugin, ptr %7, i32 0, i32 4
  %39 = load ptr, ptr %38, align 8
  %40 = load ptr, ptr %4, align 8
  call void @_ZN11AlignDialog13setCurrentArcEPN3vcg9AlignPair6ResultE(ptr noundef nonnull align 8 dereferenceable(376) %39, ptr noundef %40)
  br label %41

41:                                               ; preds = %37, %34
  ret void
}