; Function Attrs: mustprogress uwtable
define void @_ZN15EditAlignPlugin12selectBadArcEv(ptr nocapture noundef nonnull readonly align 8 dereferenceable(1056) %0) local_unnamed_addr #9 align 2 {
  %2 = getelementptr inbounds i8, ptr %0, i64 728
  %3 = load ptr, ptr %2, align 8
  %4 = getelementptr inbounds i8, ptr %0, i64 736
  %5 = load ptr, ptr %4, align 8
  %.not1112 = icmp eq ptr %3, %5
  br i1 %.not1112, label %._crit_edge.thread, label %.lr.ph

.lr.ph:                                           ; preds = %1, %.lr.ph
  %.015 = phi ptr [ %.1, %.lr.ph ], [ null, %1 ]
  %.0414 = phi float [ %.15, %.lr.ph ], [ 0.000000e+00, %1 ]
  %.sroa.06.013 = phi ptr [ %11, %.lr.ph ], [ %3, %1 ]
  %6 = getelementptr inbounds i8, ptr %.sroa.06.013, i64 472
  %7 = load double, ptr %6, align 8
  %8 = fpext float %.0414 to double
  %9 = fcmp ogt double %7, %8
  %10 = fptrunc double %7 to float
  %.15 = select i1 %9, float %10, float %.0414
  %.1 = select i1 %9, ptr %.sroa.06.013, ptr %.015
  %11 = getelementptr inbounds i8, ptr %.sroa.06.013, i64 488
  %.not11 = icmp eq ptr %11, %5
  br i1 %.not11, label %._crit_edge, label %.lr.ph, !llvm.loop !475

._crit_edge:                                      ; preds = %.lr.ph
  %.not = icmp eq ptr %.1, null
  br i1 %.not, label %._crit_edge.thread, label %12

12:                                               ; preds = %._crit_edge
  %13 = getelementptr inbounds i8, ptr %0, i64 56
  %14 = load ptr, ptr %13, align 8
  tail call void @_ZN11AlignDialog13setCurrentArcEPN3vcg9AlignPair6ResultE(ptr noundef nonnull align 8 dereferenceable(376) %14, ptr noundef nonnull %.1)
  br label %._crit_edge.thread

._crit_edge.thread:                               ; preds = %1, %12, %._crit_edge
  ret void
}